target datalayout = "e-m:e-p270:32:32-p271:32:32-p272:64:64-i64:64-i128:128-f80:128-n8:16:32:64-S128"
target triple = "x86_64-pc-linux-gnu"

%struct.ssl_st = type { i32, ptr, ptr, ptr, %struct.CRYPTO_REF_COUNT, ptr, %struct.crypto_ex_data_st }
%struct.CRYPTO_REF_COUNT = type { i32 }
%struct.crypto_ex_data_st = type { ptr, ptr }

; Function Attrs: nounwind uwtable
define i32 @SSL_listen(ptr noundef %0) #0 {
  %2 = alloca i32, align 4
  %3 = alloca ptr, align 8
  store ptr %0, ptr %3, align 8, !tbaa !16
  %4 = load ptr, ptr %3, align 8, !tbaa !16
  %5 = icmp ne ptr %4, null
  br i1 %5, label %6, label %12

6:                                                ; preds = %1
  %7 = load ptr, ptr %3, align 8, !tbaa !16
  %8 = getelementptr inbounds nuw %struct.ssl_st, ptr %7, i32 0, i32 0
  %9 = load i32, ptr %8, align 8, !tbaa !29
  %10 = and i32 %9, 128
  %11 = icmp ne i32 %10, 0
  br i1 %11, label %13, label %12

12:                                               ; preds = %6, %1
  store i32 0, ptr %2, align 4
  br label %16

13:                                               ; preds = %6
  %14 = load ptr, ptr %3, align 8, !tbaa !16
  %15 = call i32 @ossl_quic_listen(ptr noundef %14)
  store i32 %15, ptr %2, align 4
  br label %16

16:                                               ; preds = %13, %12
  %17 = load i32, ptr %2, align 4
  ret i32 %17
}