; Function Attrs: nounwind uwtable
define i32 @SSL_listen(ptr noundef %0) local_unnamed_addr #0 {
  %.not = icmp eq ptr %0, null
  br i1 %.not, label %7, label %2

2:                                                ; preds = %1
  %3 = load i32, ptr %0, align 8, !tbaa !19
  %4 = and i32 %3, 128
  %.not4 = icmp eq i32 %4, 0
  br i1 %.not4, label %7, label %5

5:                                                ; preds = %2
  %6 = tail call i32 @ossl_quic_listen(ptr noundef nonnull %0) #20
  br label %7

7:                                                ; preds = %1, %2, %5
  %.0 = phi i32 [ %6, %5 ], [ 0, %2 ], [ 0, %1 ]
  ret i32 %.0
}